target datalayout = "e-m:e-p270:32:32-p271:32:32-p272:64:64-i64:64-i128:128-f80:128-n8:16:32:64-S128"
target triple = "x86_64-pc-linux-gnu"

@.str.66 = private unnamed_addr constant [34 x i8] c"ASCII conversion buffer too small\00", align 1

; Function Attrs: nounwind uwtable
define void @png_ascii_from_fixed(ptr noalias noundef %0, ptr noundef %1, i64 noundef %2, i32 noundef %3) #0 {
  %5 = alloca ptr, align 8
  %6 = alloca ptr, align 8
  %7 = alloca i64, align 8
  %8 = alloca i32, align 4
  %9 = alloca i32, align 4
  %10 = alloca i32, align 4
  %11 = alloca i32, align 4
  %12 = alloca [10 x i8], align 1
  %13 = alloca i32, align 4
  %14 = alloca i32, align 4
  store ptr %0, ptr %5, align 8
  store ptr %1, ptr %6, align 8
  store i64 %2, ptr %7, align 8
  store i32 %3, ptr %8, align 4
  %15 = load i64, ptr %7, align 8
  %16 = icmp ugt i64 %15, 12
  br i1 %16, label %17, label %108

17:                                               ; preds = %4
  %18 = load i32, ptr %8, align 4
  %19 = icmp slt i32 %18, 0
  br i1 %19, label %20, label %25

20:                                               ; preds = %17
  %21 = load ptr, ptr %6, align 8
  %22 = getelementptr inbounds i8, ptr %21, i32 1
  store ptr %22, ptr %6, align 8
  store i8 45, ptr %21, align 1
  %23 = load i32, ptr %8, align 4
  %24 = sub nsw i32 0, %23
  store i32 %24, ptr %9, align 4
  br label %27

25:                                               ; preds = %17
  %26 = load i32, ptr %8, align 4
  store i32 %26, ptr %9, align 4
  br label %27

27:                                               ; preds = %25, %20
  %28 = load i32, ptr %9, align 4
  %29 = icmp ule i32 %28, -2147483648
  br i1 %29, label %30, label %107

30:                                               ; preds = %27
  store i32 0, ptr %10, align 4
  store i32 16, ptr %11, align 4
  call void @llvm.memset.p0.i64(ptr align 1 %12, i8 0, i64 10, i1 false)
  br label %31

31:                                               ; preds = %55, %30
  %32 = load i32, ptr %9, align 4
  %33 = icmp ne i32 %32, 0
  br i1 %33, label %34, label %57

34:                                               ; preds = %31
  %35 = load i32, ptr %9, align 4
  %36 = udiv i32 %35, 10
  store i32 %36, ptr %13, align 4
  %37 = load i32, ptr %13, align 4
  %38 = mul i32 %37, 10
  %39 = load i32, ptr %9, align 4
  %40 = sub i32 %39, %38
  store i32 %40, ptr %9, align 4
  %41 = load i32, ptr %9, align 4
  %42 = add i32 48, %41
  %43 = trunc i32 %42 to i8
  %44 = load i32, ptr %10, align 4
  %45 = add i32 %44, 1
  store i32 %45, ptr %10, align 4
  %46 = zext i32 %44 to i64
  %47 = getelementptr inbounds [10 x i8], ptr %12, i64 0, i64 %46
  store i8 %43, ptr %47, align 1
  %48 = load i32, ptr %11, align 4
  %49 = icmp eq i32 %48, 16
  br i1 %49, label %50, label %55

50:                                               ; preds = %34
  %51 = load i32, ptr %9, align 4
  %52 = icmp ugt i32 %51, 0
  br i1 %52, label %53, label %55

53:                                               ; preds = %50
  %54 = load i32, ptr %10, align 4
  store i32 %54, ptr %11, align 4
  br label %55

55:                                               ; preds = %53, %50, %34
  %56 = load i32, ptr %13, align 4
  store i32 %56, ptr %9, align 4
  br label %31, !llvm.loop !26

57:                                               ; preds = %31
  %58 = load i32, ptr %10, align 4
  %59 = icmp ugt i32 %58, 0
  br i1 %59, label %60, label %102

60:                                               ; preds = %57
  br label %61

61:                                               ; preds = %64, %60
  %62 = load i32, ptr %10, align 4
  %63 = icmp ugt i32 %62, 5
  br i1 %63, label %64, label %72

64:                                               ; preds = %61
  %65 = load i32, ptr %10, align 4
  %66 = add i32 %65, -1
  store i32 %66, ptr %10, align 4
  %67 = zext i32 %66 to i64
  %68 = getelementptr inbounds [10 x i8], ptr %12, i64 0, i64 %67
  %69 = load i8, ptr %68, align 1
  %70 = load ptr, ptr %6, align 8
  %71 = getelementptr inbounds i8, ptr %70, i32 1
  store ptr %71, ptr %6, align 8
  store i8 %69, ptr %70, align 1
  br label %61, !llvm.loop !27

72:                                               ; preds = %61
  %73 = load i32, ptr %11, align 4
  %74 = icmp ule i32 %73, 5
  br i1 %74, label %75, label %101

75:                                               ; preds = %72
  %76 = load ptr, ptr %6, align 8
  %77 = getelementptr inbounds i8, ptr %76, i32 1
  store ptr %77, ptr %6, align 8
  store i8 46, ptr %76, align 1
  store i32 5, ptr %14, align 4
  br label %78

78:                                               ; preds = %82, %75
  %79 = load i32, ptr %10, align 4
  %80 = load i32, ptr %14, align 4
  %81 = icmp ult i32 %79, %80
  br i1 %81, label %82, label %87

82:                                               ; preds = %78
  %83 = load ptr, ptr %6, align 8
  %84 = getelementptr inbounds i8, ptr %83, i32 1
  store ptr %84, ptr %6, align 8
  store i8 48, ptr %83, align 1
  %85 = load i32, ptr %14, align 4
  %86 = add i32 %85, -1
  store i32 %86, ptr %14, align 4
  br label %78, !llvm.loop !28

87:                                               ; preds = %78
  br label %88

88:                                               ; preds = %92, %87
  %89 = load i32, ptr %10, align 4
  %90 = load i32, ptr %11, align 4
  %91 = icmp uge i32 %89, %90
  br i1 %91, label %92, label %100

92:                                               ; preds = %88
  %93 = load i32, ptr %10, align 4
  %94 = add i32 %93, -1
  store i32 %94, ptr %10, align 4
  %95 = zext i32 %94 to i64
  %96 = getelementptr inbounds [10 x i8], ptr %12, i64 0, i64 %95
  %97 = load i8, ptr %96, align 1
  %98 = load ptr, ptr %6, align 8
  %99 = getelementptr inbounds i8, ptr %98, i32 1
  store ptr %99, ptr %6, align 8
  store i8 %97, ptr %98, align 1
  br label %88, !llvm.loop !29

100:                                              ; preds = %88
  br label %101

101:                                              ; preds = %100, %72
  br label %105

102:                                              ; preds = %57
  %103 = load ptr, ptr %6, align 8
  %104 = getelementptr inbounds i8, ptr %103, i32 1
  store ptr %104, ptr %6, align 8
  store i8 48, ptr %103, align 1
  br label %105

105:                                              ; preds = %102, %101
  %106 = load ptr, ptr %6, align 8
  store i8 0, ptr %106, align 1
  ret void

107:                                              ; preds = %27
  br label %108

108:                                              ; preds = %107, %4
  %109 = load ptr, ptr %5, align 8
  call void @png_error(ptr noundef %109, ptr noundef @.str.66) #10
  unreachable
}