; Function Attrs: nounwind uwtable
define void @png_ascii_from_fixed(ptr noalias noundef %0, ptr nocapture noundef writeonly %1, i64 noundef %2, i32 noundef %3) local_unnamed_addr #0 {
  %5 = alloca [10 x i8], align 1
  %6 = icmp ugt i64 %2, 12
  br i1 %6, label %7, label %40

7:                                                ; preds = %4
  %8 = icmp slt i32 %3, 0
  br i1 %8, label %.thread, label %11

.thread:                                          ; preds = %7
  %9 = getelementptr inbounds i8, ptr %1, i64 1
  store i8 45, ptr %1, align 1
  %10 = sub nsw i32 0, %3
  call void @llvm.memset.p0.i64(ptr noundef nonnull align 1 dereferenceable(10) %5, i8 0, i64 10, i1 false)
  br label %.lr.ph.preheader

11:                                               ; preds = %7
  call void @llvm.memset.p0.i64(ptr noundef nonnull align 1 dereferenceable(10) %5, i8 0, i64 10, i1 false)
  %.not46 = icmp eq i32 %3, 0
  br i1 %.not46, label %._crit_edge.thread, label %.lr.ph.preheader

.lr.ph.preheader:                                 ; preds = %.thread, %11
  %.03377 = phi ptr [ %9, %.thread ], [ %1, %11 ]
  %.03976 = phi i32 [ %10, %.thread ], [ %3, %11 ]
  br label %.lr.ph

.lr.ph:                                           ; preds = %.lr.ph.preheader, %.lr.ph
  %.03449 = phi i32 [ %spec.select, %.lr.ph ], [ 16, %.lr.ph.preheader ]
  %.03648 = phi i32 [ %16, %.lr.ph ], [ 0, %.lr.ph.preheader ]
  %.14047 = phi i32 [ %12, %.lr.ph ], [ %.03976, %.lr.ph.preheader ]
  %12 = udiv i32 %.14047, 10
  %.neg = mul i32 %12, -10
  %13 = add i32 %.neg, %.14047
  %14 = trunc i32 %13 to i8
  %15 = add i8 %14, 48
  %16 = add i32 %.03648, 1
  %17 = zext i32 %.03648 to i64
  %18 = getelementptr inbounds [10 x i8], ptr %5, i64 0, i64 %17
  store i8 %15, ptr %18, align 1
  %19 = icmp eq i32 %.03449, 16
  %20 = icmp ne i32 %13, 0
  %or.cond = and i1 %19, %20
  %spec.select = select i1 %or.cond, i32 %16, i32 %.03449
  %.not = icmp ult i32 %.14047, 10
  br i1 %.not, label %._crit_edge, label %.lr.ph, !llvm.loop !69

._crit_edge:                                      ; preds = %.lr.ph
  %.not43 = icmp eq i32 %16, 0
  br i1 %.not43, label %._crit_edge.thread, label %.preheader45

.preheader45:                                     ; preds = %._crit_edge
  %21 = icmp ugt i32 %16, 5
  br i1 %21, label %.lr.ph53.preheader, label %._crit_edge54

.lr.ph53.preheader:                               ; preds = %.preheader45
  %22 = zext i32 %16 to i64
  br label %.lr.ph53

.lr.ph53:                                         ; preds = %.lr.ph53.preheader, %.lr.ph53
  %indvars.iv = phi i64 [ %22, %.lr.ph53.preheader ], [ %23, %.lr.ph53 ]
  %.152 = phi ptr [ %.03377, %.lr.ph53.preheader ], [ %26, %.lr.ph53 ]
  %23 = add nsw i64 %indvars.iv, -1
  %24 = getelementptr inbounds [10 x i8], ptr %5, i64 0, i64 %23
  %25 = load i8, ptr %24, align 1
  %26 = getelementptr inbounds i8, ptr %.152, i64 1
  store i8 %25, ptr %.152, align 1
  %.wide = icmp ugt i64 %23, 5
  br i1 %.wide, label %.lr.ph53, label %._crit_edge54, !llvm.loop !70

._crit_edge54:                                    ; preds = %.lr.ph53, %.preheader45
  %.137.lcssa = phi i32 [ %16, %.preheader45 ], [ 5, %.lr.ph53 ]
  %.1.lcssa = phi ptr [ %.03377, %.preheader45 ], [ %26, %.lr.ph53 ]
  %27 = icmp ult i32 %spec.select, 6
  br i1 %27, label %28, label %.loopexit

28:                                               ; preds = %._crit_edge54
  store i8 46, ptr %.1.lcssa, align 1
  %.257 = getelementptr i8, ptr %.1.lcssa, i64 1
  %29 = icmp ult i32 %.137.lcssa, 5
  br i1 %29, label %.lr.ph61.preheader, label %.preheader

.lr.ph61.preheader:                               ; preds = %28
  %30 = sub nuw nsw i32 4, %.137.lcssa
  %31 = zext nneg i32 %30 to i64
  %32 = add nuw nsw i64 %31, 1
  tail call void @llvm.memset.p0.i64(ptr noundef nonnull align 1 dereferenceable(1) %.257, i8 48, i64 %32, i1 false)
  %33 = add nuw nsw i64 %31, 2
  %scevgep = getelementptr i8, ptr %.1.lcssa, i64 %33
  br label %.preheader

.preheader:                                       ; preds = %.lr.ph61.preheader, %28
  %.2.lcssa = phi ptr [ %.257, %28 ], [ %scevgep, %.lr.ph61.preheader ]
  %.not4463 = icmp ult i32 %.137.lcssa, %spec.select
  br i1 %.not4463, label %.loopexit, label %.lr.ph66

.lr.ph66:                                         ; preds = %.preheader, %.lr.ph66
  %.365 = phi ptr [ %38, %.lr.ph66 ], [ %.2.lcssa, %.preheader ]
  %.23864 = phi i32 [ %34, %.lr.ph66 ], [ %.137.lcssa, %.preheader ]
  %34 = add i32 %.23864, -1
  %35 = zext i32 %34 to i64
  %36 = getelementptr inbounds [10 x i8], ptr %5, i64 0, i64 %35
  %37 = load i8, ptr %36, align 1
  %38 = getelementptr inbounds i8, ptr %.365, i64 1
  store i8 %37, ptr %.365, align 1
  %.not44 = icmp ult i32 %34, %spec.select
  br i1 %.not44, label %.loopexit, label %.lr.ph66, !llvm.loop !71

._crit_edge.thread:                               ; preds = %11, %._crit_edge
  %.0337883 = phi ptr [ %.03377, %._crit_edge ], [ %1, %11 ]
  %39 = getelementptr inbounds i8, ptr %.0337883, i64 1
  store i8 48, ptr %.0337883, align 1
  br label %.loopexit

.loopexit:                                        ; preds = %.lr.ph66, %.preheader, %._crit_edge54, %._crit_edge.thread
  %.4 = phi ptr [ %.1.lcssa, %._crit_edge54 ], [ %39, %._crit_edge.thread ], [ %.2.lcssa, %.preheader ], [ %38, %.lr.ph66 ]
  store i8 0, ptr %.4, align 1
  ret void

40:                                               ; preds = %4
  tail call void @png_error(ptr noundef %0, ptr noundef nonnull @.str.66) #27
  unreachable
}